target datalayout = "e-m:e-p270:32:32-p271:32:32-p272:64:64-i64:64-i128:128-f80:128-n8:16:32:64-S128"
target triple = "x86_64-pc-linux-gnu"

%"class.Luau::CodeGen::BaseCodeGenContext" = type { ptr, %"struct.Luau::CodeGen::CodeAllocator", %"class.std::unique_ptr", ptr, i64, ptr, ptr, %"struct.Luau::CodeGen::NativeContext" }
%"struct.Luau::CodeGen::CodeAllocator" = type { ptr, ptr, ptr, ptr, ptr, %"class.std::vector", %"class.std::vector.0", i64, i64, ptr, ptr }
%"class.std::vector" = type { %"struct.std::_Vector_base" }
%"struct.std::_Vector_base" = type { %"struct.std::_Vector_base<unsigned char *, std::allocator<unsigned char *>>::_Vector_impl" }
%"struct.std::_Vector_base<unsigned char *, std::allocator<unsigned char *>>::_Vector_impl" = type { %"struct.std::_Vector_base<unsigned char *, std::allocator<unsigned char *>>::_Vector_impl_data" }
%"struct.std::_Vector_base<unsigned char *, std::allocator<unsigned char *>>::_Vector_impl_data" = type { ptr, ptr, ptr }
%"class.std::vector.0" = type { %"struct.std::_Vector_base.1" }
%"struct.std::_Vector_base.1" = type { %"struct.std::_Vector_base<void *, std::allocator<void *>>::_Vector_impl" }
%"struct.std::_Vector_base<void *, std::allocator<void *>>::_Vector_impl" = type { %"struct.std::_Vector_base<void *, std::allocator<void *>>::_Vector_impl_data" }
%"struct.std::_Vector_base<void *, std::allocator<void *>>::_Vector_impl_data" = type { ptr, ptr, ptr }
%"class.std::unique_ptr" = type { %"struct.std::__uniq_ptr_data" }
%"struct.std::__uniq_ptr_data" = type { %"class.std::__uniq_ptr_impl" }
%"class.std::__uniq_ptr_impl" = type { %"class.std::tuple" }
%"class.std::tuple" = type { %"struct.std::_Tuple_impl" }
%"struct.std::_Tuple_impl" = type { %"struct.std::_Head_base.6" }
%"struct.std::_Head_base.6" = type { ptr }
%"struct.Luau::CodeGen::NativeContext" = type { ptr, ptr, ptr, ptr, ptr, ptr, ptr, ptr, ptr, ptr, ptr, ptr, ptr, ptr, ptr, ptr, ptr, ptr, ptr, ptr, ptr, ptr, ptr, ptr, ptr, ptr, ptr, ptr, ptr, ptr, ptr, ptr, ptr, ptr, ptr, ptr, ptr, ptr, ptr, ptr, ptr, ptr, ptr, ptr, ptr, ptr, ptr, ptr, ptr, ptr, ptr, ptr, ptr, ptr, ptr, ptr, ptr, ptr, ptr, ptr, ptr, ptr, ptr, ptr, ptr, ptr, ptr, ptr, ptr, ptr, ptr, [256 x ptr] }

@_ZN4Luau7CodeGenL15gPerfLogContextE = internal global ptr null, align 8
@_ZN4Luau7CodeGenL10gPerfLogFnE = internal global ptr null, align 8
@.str.3 = private unnamed_addr constant [12 x i8] c"<luau gate>\00", align 1

; Function Attrs: mustprogress uwtable
define dso_local noundef zeroext i1 @_ZN4Luau7CodeGen18BaseCodeGenContext19initHeaderFunctionsEv(ptr noundef nonnull align 8 dereferenceable(2784) %0) #2 align 2 {
  %2 = alloca i1, align 1
  %3 = alloca ptr, align 8
  store ptr %0, ptr %3, align 8, !tbaa !23
  %4 = load ptr, ptr %3, align 8
  %5 = call noundef zeroext i1 @_ZN4Luau7CodeGen3X6419initHeaderFunctionsERNS0_18BaseCodeGenContextE(ptr noundef nonnull align 8 dereferenceable(2784) %4)
  br i1 %5, label %7, label %6

6:                                                ; preds = %1
  store i1 false, ptr %2, align 1
  br label %18

7:                                                ; preds = %1
  %8 = load ptr, ptr @_ZN4Luau7CodeGenL10gPerfLogFnE, align 8, !tbaa !22
  %9 = icmp ne ptr %8, null
  br i1 %9, label %10, label %17

10:                                               ; preds = %7
  %11 = load ptr, ptr @_ZN4Luau7CodeGenL10gPerfLogFnE, align 8, !tbaa !22
  %12 = load ptr, ptr @_ZN4Luau7CodeGenL15gPerfLogContextE, align 8, !tbaa !22
  %13 = getelementptr inbounds nuw %"class.Luau::CodeGen::BaseCodeGenContext", ptr %4, i32 0, i32 7
  %14 = getelementptr inbounds nuw %"struct.Luau::CodeGen::NativeContext", ptr %13, i32 0, i32 0
  %15 = load ptr, ptr %14, align 8, !tbaa !139
  %16 = ptrtoint ptr %15 to i64
  call void %11(ptr noundef %12, i64 noundef %16, i32 noundef 4096, ptr noundef @.str.3)
  br label %17

17:                                               ; preds = %10, %7
  store i1 true, ptr %2, align 1
  br label %18

18:                                               ; preds = %17, %6
  %19 = load i1, ptr %2, align 1
  ret i1 %19
}