; Function Attrs: mustprogress uwtable
define dso_local noundef zeroext i1 @_ZN4Luau7CodeGen18BaseCodeGenContext19initHeaderFunctionsEv(ptr noundef nonnull align 8 dereferenceable(2784) %0) local_unnamed_addr #1 align 2 {
  %2 = tail call noundef zeroext i1 @_ZN4Luau7CodeGen3X6419initHeaderFunctionsERNS0_18BaseCodeGenContextE(ptr noundef nonnull align 8 dereferenceable(2784) %0)
  br i1 %2, label %3, label %10

3:                                                ; preds = %1
  %4 = load ptr, ptr @_ZN4Luau7CodeGenL10gPerfLogFnE, align 8, !tbaa !4
  %.not = icmp eq ptr %4, null
  br i1 %.not, label %10, label %5

5:                                                ; preds = %3
  %6 = load ptr, ptr @_ZN4Luau7CodeGenL15gPerfLogContextE, align 8, !tbaa !4
  %7 = getelementptr inbounds nuw i8, ptr %0, i64 168
  %8 = load ptr, ptr %7, align 8, !tbaa !48
  %9 = ptrtoint ptr %8 to i64
  tail call void %4(ptr noundef %6, i64 noundef %9, i32 noundef 4096, ptr noundef nonnull @.str.3)
  br label %10

10:                                               ; preds = %3, %5, %1
  ret i1 %2
}